; Function Attrs: nounwind uwtable
define i32 @_php_stream_truncate_set_size(ptr noundef %0, i64 noundef %1) local_unnamed_addr #2 {
  %3 = alloca i64, align 8
  store i64 %1, ptr %3, align 8
  %4 = load ptr, ptr %0, align 8
  %5 = getelementptr inbounds i8, ptr %4, i64 64
  %6 = load ptr, ptr %5, align 8
  %.not.i = icmp eq ptr %6, null
  br i1 %.not.i, label %.thread.i, label %7

7:                                                ; preds = %2
  %8 = call i32 %6(ptr noundef nonnull %0, i32 noundef 10, i32 noundef 1, ptr noundef nonnull %3) #27
  %9 = icmp eq i32 %8, -2
  br i1 %9, label %.thread.i, label %_php_stream_set_option.exit

.thread.i:                                        ; preds = %7, %2
  br label %_php_stream_set_option.exit

_php_stream_set_option.exit:                      ; preds = %7, %.thread.i
  %.018.i = phi i32 [ -2, %.thread.i ], [ %8, %7 ]
  ret i32 %.018.i
}